; Function Attrs: mustprogress nofree norecurse nosync nounwind willreturn memory(read, inaccessiblemem: none) uwtable
define noundef i64 @_ZNK5faiss16ZnSphereCodecRec10get_nv_cumEiii(ptr noundef nonnull readonly align 8 captures(none) dereferenceable(112) %0, i32 noundef %1, i32 noundef %2, i32 noundef %3) local_unnamed_addr #10 align 2 {
  %5 = getelementptr inbounds nuw i8, ptr %0, i64 56
  %6 = getelementptr inbounds nuw i8, ptr %0, i64 20
  %7 = load i32, ptr %6, align 4, !tbaa !46
  %8 = add nsw i32 %7, 1
  %9 = mul nsw i32 %8, %1
  %10 = add nsw i32 %9, %2
  %11 = mul nsw i32 %10, %8
  %12 = add nsw i32 %11, %3
  %13 = sext i32 %12 to i64
  %14 = load ptr, ptr %5, align 8, !tbaa !69
  %15 = getelementptr inbounds nuw i64, ptr %14, i64 %13
  %16 = load i64, ptr %15, align 8, !tbaa !44
  ret i64 %16
}